target datalayout = "e-m:e-p270:32:32-p271:32:32-p272:64:64-i64:64-i128:128-f80:128-n8:16:32:64-S128"
target triple = "x86_64-unknown-linux-gnu"

%struct.zlib_data = type { %struct.z_stream_s, ptr, i32, ptr }
%struct.z_stream_s = type { ptr, i32, i64, ptr, i32, i64, ptr, ptr, ptr, ptr, ptr, i32, i64, i64 }
%struct.MultiFDSendParams = type { i8, ptr, %struct.QemuThread, ptr, i8, i32, i32, i32, i32, %struct.QemuSemaphore, %struct.QemuSemaphore, %struct.QemuMutex, i8, i8, i32, i64, i32, ptr, ptr, i32, i64, i64, ptr, i32, ptr, i32, ptr }
%struct.QemuThread = type { i64 }
%struct.QemuSemaphore = type { %struct.QemuMutex, %struct.QemuCond, i32 }
%struct.QemuCond = type { %union.pthread_cond_t, i8 }
%union.pthread_cond_t = type { %struct.__pthread_cond_s }
%struct.__pthread_cond_s = type { %union.__atomic_wide_counter, %union.__atomic_wide_counter, [2 x i32], [2 x i32], i32, i32, [2 x i32] }
%union.__atomic_wide_counter = type { i64 }
%struct.QemuMutex = type { %union.pthread_mutex_t, i8 }
%union.pthread_mutex_t = type { %struct.__pthread_mutex_s }
%struct.__pthread_mutex_s = type { i32, i32, i32, i32, i32, i16, i16, %struct.__pthread_internal_list }
%struct.__pthread_internal_list = type { ptr, ptr }

@.str = private unnamed_addr constant [7 x i8] c"1.2.11\00", align 1
@.str.1 = private unnamed_addr constant [20 x i8] c"deflate init failed\00", align 1
@.str.2 = private unnamed_addr constant [24 x i8] c"out of memory for zbuff\00", align 1
@.str.3 = private unnamed_addr constant [22 x i8] c"out of memory for buf\00", align 1
@.str.4 = private unnamed_addr constant [33 x i8] c"../qemu/migration/multifd-zlib.c\00", align 1
@__func__.zlib_send_setup = private unnamed_addr constant [16 x i8] c"zlib_send_setup\00", align 1
@.str.5 = private unnamed_addr constant [15 x i8] c"multifd %u: %s\00", align 1

; Function Attrs: nounwind sspstrong uwtable
define internal i32 @zlib_send_setup(ptr noundef %p, ptr noundef %errp) #0 {
entry:
  %retval = alloca i32, align 4
  %p.addr = alloca ptr, align 8
  %errp.addr = alloca ptr, align 8
  %z = alloca ptr, align 8
  %zs = alloca ptr, align 8
  %err_msg = alloca ptr, align 8
  store ptr %p, ptr %p.addr, align 8
  store ptr %errp, ptr %errp.addr, align 8
  %call = call noalias ptr @g_malloc0_n(i64 noundef 1, i64 noundef 136) #5
  store ptr %call, ptr %z, align 8
  %0 = load ptr, ptr %z, align 8
  %zs1 = getelementptr inbounds %struct.zlib_data, ptr %0, i32 0, i32 0
  store ptr %zs1, ptr %zs, align 8
  %1 = load ptr, ptr %zs, align 8
  %zalloc = getelementptr inbounds %struct.z_stream_s, ptr %1, i32 0, i32 8
  store ptr null, ptr %zalloc, align 8
  %2 = load ptr, ptr %zs, align 8
  %zfree = getelementptr inbounds %struct.z_stream_s, ptr %2, i32 0, i32 9
  store ptr null, ptr %zfree, align 8
  %3 = load ptr, ptr %zs, align 8
  %opaque = getelementptr inbounds %struct.z_stream_s, ptr %3, i32 0, i32 10
  store ptr null, ptr %opaque, align 8
  %4 = load ptr, ptr %zs, align 8
  %call2 = call i32 @migrate_multifd_zlib_level()
  %call3 = call i32 @deflateInit_(ptr noundef %4, i32 noundef %call2, ptr noundef @.str, i32 noundef 112)
  %cmp = icmp ne i32 %call3, 0
  br i1 %cmp, label %if.then, label %if.end

if.then:                                          ; preds = %entry
  store ptr @.str.1, ptr %err_msg, align 8
  br label %err_free_z

if.end:                                           ; preds = %entry
  %call4 = call i64 @compressBound(i64 noundef 524288)
  %conv = trunc i64 %call4 to i32
  %5 = load ptr, ptr %z, align 8
  %zbuff_len = getelementptr inbounds %struct.zlib_data, ptr %5, i32 0, i32 2
  store i32 %conv, ptr %zbuff_len, align 8
  %6 = load ptr, ptr %z, align 8
  %zbuff_len5 = getelementptr inbounds %struct.zlib_data, ptr %6, i32 0, i32 2
  %7 = load i32, ptr %zbuff_len5, align 8
  %conv6 = zext i32 %7 to i64
  %call7 = call noalias ptr @g_try_malloc(i64 noundef %conv6) #6
  %8 = load ptr, ptr %z, align 8
  %zbuff = getelementptr inbounds %struct.zlib_data, ptr %8, i32 0, i32 1
  store ptr %call7, ptr %zbuff, align 8
  %9 = load ptr, ptr %z, align 8
  %zbuff8 = getelementptr inbounds %struct.zlib_data, ptr %9, i32 0, i32 1
  %10 = load ptr, ptr %zbuff8, align 8
  %tobool = icmp ne ptr %10, null
  br i1 %tobool, label %if.end10, label %if.then9

if.then9:                                         ; preds = %if.end
  store ptr @.str.2, ptr %err_msg, align 8
  br label %err_deflate_end

if.end10:                                         ; preds = %if.end
  %call11 = call i64 @qemu_target_page_size()
  %call12 = call noalias ptr @g_try_malloc(i64 noundef %call11) #6
  %11 = load ptr, ptr %z, align 8
  %buf = getelementptr inbounds %struct.zlib_data, ptr %11, i32 0, i32 3
  store ptr %call12, ptr %buf, align 8
  %12 = load ptr, ptr %z, align 8
  %buf13 = getelementptr inbounds %struct.zlib_data, ptr %12, i32 0, i32 3
  %13 = load ptr, ptr %buf13, align 8
  %tobool14 = icmp ne ptr %13, null
  br i1 %tobool14, label %if.end16, label %if.then15

if.then15:                                        ; preds = %if.end10
  store ptr @.str.3, ptr %err_msg, align 8
  br label %err_free_zbuff

if.end16:                                         ; preds = %if.end10
  %14 = load ptr, ptr %z, align 8
  %15 = load ptr, ptr %p.addr, align 8
  %data = getelementptr inbounds %struct.MultiFDSendParams, ptr %15, i32 0, i32 26
  store ptr %14, ptr %data, align 8
  store i32 0, ptr %retval, align 4
  br label %return

err_free_zbuff:                                   ; preds = %if.then15
  %16 = load ptr, ptr %z, align 8
  %zbuff17 = getelementptr inbounds %struct.zlib_data, ptr %16, i32 0, i32 1
  %17 = load ptr, ptr %zbuff17, align 8
  call void @g_free(ptr noundef %17)
  br label %err_deflate_end

err_deflate_end:                                  ; preds = %err_free_zbuff, %if.then9
  %18 = load ptr, ptr %z, align 8
  %zs18 = getelementptr inbounds %struct.zlib_data, ptr %18, i32 0, i32 0
  %call19 = call i32 @deflateEnd(ptr noundef %zs18)
  br label %err_free_z

err_free_z:                                       ; preds = %err_deflate_end, %if.then
  %19 = load ptr, ptr %z, align 8
  call void @g_free(ptr noundef %19)
  %20 = load ptr, ptr %errp.addr, align 8
  %21 = load ptr, ptr %p.addr, align 8
  %id = getelementptr inbounds %struct.MultiFDSendParams, ptr %21, i32 0, i32 0
  %22 = load i8, ptr %id, align 8
  %conv20 = zext i8 %22 to i32
  %23 = load ptr, ptr %err_msg, align 8
  call void (ptr, ptr, i32, ptr, ptr, ...) @error_setg_internal(ptr noundef %20, ptr noundef @.str.4, i32 noundef 81, ptr noundef @__func__.zlib_send_setup, ptr noundef @.str.5, i32 noundef %conv20, ptr noundef %23)
  store i32 -1, ptr %retval, align 4
  br label %return

return:                                           ; preds = %err_free_z, %if.end16
  %24 = load i32, ptr %retval, align 4
  ret i32 %24
}