; Function Attrs: nounwind sspstrong uwtable
define internal range(i32 -1, 1) i32 @zlib_send_setup(ptr noundef captures(none) %p, ptr noundef %errp) #0 {
entry:
  %call = tail call noalias dereferenceable_or_null(136) ptr @g_malloc0_n(i64 noundef 1, i64 noundef 136) #7
  %zalloc = getelementptr inbounds nuw i8, ptr %call, i64 64
  tail call void @llvm.memset.p0.i64(ptr noundef nonnull align 8 dereferenceable(24) %zalloc, i8 0, i64 24, i1 false)
  %call2 = tail call i32 @migrate_multifd_zlib_level() #6
  %call3 = tail call i32 @deflateInit_(ptr noundef %call, i32 noundef %call2, ptr noundef nonnull @.str, i32 noundef 112) #6
  %cmp.not = icmp eq i32 %call3, 0
  br i1 %cmp.not, label %if.end, label %err_free_z

if.end:                                           ; preds = %entry
  %call4 = tail call i64 @compressBound(i64 noundef 524288) #6
  %conv = trunc i64 %call4 to i32
  %zbuff_len = getelementptr inbounds nuw i8, ptr %call, i64 120
  store i32 %conv, ptr %zbuff_len, align 8
  %conv6 = and i64 %call4, 4294967295
  %call7 = tail call noalias ptr @g_try_malloc(i64 noundef %conv6) #8
  %zbuff = getelementptr inbounds nuw i8, ptr %call, i64 112
  store ptr %call7, ptr %zbuff, align 8
  %tobool.not = icmp eq ptr %call7, null
  br i1 %tobool.not, label %err_deflate_end, label %if.end10

if.end10:                                         ; preds = %if.end
  %call11 = tail call i64 @qemu_target_page_size() #6
  %call12 = tail call noalias ptr @g_try_malloc(i64 noundef %call11) #8
  %buf = getelementptr inbounds nuw i8, ptr %call, i64 128
  store ptr %call12, ptr %buf, align 8
  %tobool14.not = icmp eq ptr %call12, null
  br i1 %tobool14.not, label %if.then15, label %if.end16

if.then15:                                        ; preds = %if.end10
  %0 = load ptr, ptr %zbuff, align 8
  tail call void @g_free(ptr noundef %0) #6
  br label %err_deflate_end

if.end16:                                         ; preds = %if.end10
  %data = getelementptr inbounds nuw i8, ptr %p, i64 424
  store ptr %call, ptr %data, align 8
  br label %return

err_deflate_end:                                  ; preds = %if.end, %if.then15
  %err_msg.1 = phi ptr [ @.str.3, %if.then15 ], [ @.str.2, %if.end ]
  %call19 = tail call i32 @deflateEnd(ptr noundef nonnull %call) #6
  br label %err_free_z

err_free_z:                                       ; preds = %entry, %err_deflate_end
  %err_msg.0 = phi ptr [ %err_msg.1, %err_deflate_end ], [ @.str.1, %entry ]
  tail call void @g_free(ptr noundef nonnull %call) #6
  %1 = load i8, ptr %p, align 8
  %conv20 = zext i8 %1 to i32
  tail call void (ptr, ptr, i32, ptr, ptr, ...) @error_setg_internal(ptr noundef %errp, ptr noundef nonnull @.str.4, i32 noundef 81, ptr noundef nonnull @__func__.zlib_send_setup, ptr noundef nonnull @.str.5, i32 noundef %conv20, ptr noundef nonnull %err_msg.0) #6
  br label %return

return:                                           ; preds = %err_free_z, %if.end16
  %retval.0 = phi i32 [ -1, %err_free_z ], [ 0, %if.end16 ]
  ret i32 %retval.0
}